(dp0
S'files'
p1
(lp2
S'/eos/experiment/fcc/helhc/generation/DelphesEvents/helhc_v01/p8_pp_Zprime_2TeV_ttbar/events_166198442.root'
p3
aS'/eos/experiment/fcc/helhc/generation/DelphesEvents/helhc_v01/p8_pp_Zprime_2TeV_ttbar/events_166408017.root'
p4
aS'/eos/experiment/fcc/helhc/generation/DelphesEvents/helhc_v01/p8_pp_Zprime_2TeV_ttbar/events_167400601.root'
p5
aS'/eos/experiment/fcc/helhc/generation/DelphesEvents/helhc_v01/p8_pp_Zprime_2TeV_ttbar/events_174810328.root'
p6
aS'/eos/experiment/fcc/helhc/generation/DelphesEvents/helhc_v01/p8_pp_Zprime_2TeV_ttbar/events_177511238.root'
p7
asS'name'
p8
S'p8_pp_Zprime_2TeV_ttbar_Chunk8'
p9
s.