(dp0
S'files'
p1
(lp2
S'/eos/experiment/fcc/helhc/generation/DelphesEvents/helhc_v01/p8_pp_Zprime_5TeV_ttbar/events_154831204.root'
p3
aS'/eos/experiment/fcc/helhc/generation/DelphesEvents/helhc_v01/p8_pp_Zprime_5TeV_ttbar/events_163041019.root'
p4
aS'/eos/experiment/fcc/helhc/generation/DelphesEvents/helhc_v01/p8_pp_Zprime_5TeV_ttbar/events_168138928.root'
p5
aS'/eos/experiment/fcc/helhc/generation/DelphesEvents/helhc_v01/p8_pp_Zprime_5TeV_ttbar/events_168449911.root'
p6
aS'/eos/experiment/fcc/helhc/generation/DelphesEvents/helhc_v01/p8_pp_Zprime_5TeV_ttbar/events_175993237.root'
p7
asS'name'
p8
S'p8_pp_Zprime_5TeV_ttbar_Chunk8'
p9
s.