(dp0
S'files'
p1
(lp2
S'root://eospublic.cern.ch//eos/experiment/fcc/helhc/generation/DelphesEvents/helhc_v01/mgp8_pp_tt_lo/events_030959466.root'
p3
aS'root://eospublic.cern.ch//eos/experiment/fcc/helhc/generation/DelphesEvents/helhc_v01/mgp8_pp_tt_lo/events_031179193.root'
p4
aS'root://eospublic.cern.ch//eos/experiment/fcc/helhc/generation/DelphesEvents/helhc_v01/mgp8_pp_tt_lo/events_032671267.root'
p5
aS'root://eospublic.cern.ch//eos/experiment/fcc/helhc/generation/DelphesEvents/helhc_v01/mgp8_pp_tt_lo/events_033122982.root'
p6
aS'root://eospublic.cern.ch//eos/experiment/fcc/helhc/generation/DelphesEvents/helhc_v01/mgp8_pp_tt_lo/events_033699319.root'
p7
aS'root://eospublic.cern.ch//eos/experiment/fcc/helhc/generation/DelphesEvents/helhc_v01/mgp8_pp_tt_lo/events_034020199.root'
p8
aS'root://eospublic.cern.ch//eos/experiment/fcc/helhc/generation/DelphesEvents/helhc_v01/mgp8_pp_tt_lo/events_034336117.root'
p9
aS'root://eospublic.cern.ch//eos/experiment/fcc/helhc/generation/DelphesEvents/helhc_v01/mgp8_pp_tt_lo/events_035534392.root'
p10
aS'root://eospublic.cern.ch//eos/experiment/fcc/helhc/generation/DelphesEvents/helhc_v01/mgp8_pp_tt_lo/events_035567282.root'
p11
aS'root://eospublic.cern.ch//eos/experiment/fcc/helhc/generation/DelphesEvents/helhc_v01/mgp8_pp_tt_lo/events_036390192.root'
p12
asS'name'
p13
S'mgp8_pp_tt_lo_Chunk6'
p14
s.