(dp0
S'files'
p1
(lp2
S'root://eospublic.cern.ch//eos/experiment/fcc/helhc/generation/DelphesEvents/helhc_v01/mgp8_pp_tt_lo/events_022587925.root'
p3
aS'root://eospublic.cern.ch//eos/experiment/fcc/helhc/generation/DelphesEvents/helhc_v01/mgp8_pp_tt_lo/events_022912179.root'
p4
aS'root://eospublic.cern.ch//eos/experiment/fcc/helhc/generation/DelphesEvents/helhc_v01/mgp8_pp_tt_lo/events_023391064.root'
p5
aS'root://eospublic.cern.ch//eos/experiment/fcc/helhc/generation/DelphesEvents/helhc_v01/mgp8_pp_tt_lo/events_023583096.root'
p6
aS'root://eospublic.cern.ch//eos/experiment/fcc/helhc/generation/DelphesEvents/helhc_v01/mgp8_pp_tt_lo/events_024102890.root'
p7
aS'root://eospublic.cern.ch//eos/experiment/fcc/helhc/generation/DelphesEvents/helhc_v01/mgp8_pp_tt_lo/events_024920428.root'
p8
aS'root://eospublic.cern.ch//eos/experiment/fcc/helhc/generation/DelphesEvents/helhc_v01/mgp8_pp_tt_lo/events_024959805.root'
p9
aS'root://eospublic.cern.ch//eos/experiment/fcc/helhc/generation/DelphesEvents/helhc_v01/mgp8_pp_tt_lo/events_025251205.root'
p10
aS'root://eospublic.cern.ch//eos/experiment/fcc/helhc/generation/DelphesEvents/helhc_v01/mgp8_pp_tt_lo/events_025502120.root'
p11
aS'root://eospublic.cern.ch//eos/experiment/fcc/helhc/generation/DelphesEvents/helhc_v01/mgp8_pp_tt_lo/events_026242719.root'
p12
asS'name'
p13
S'mgp8_pp_tt_lo_Chunk4'
p14
s.