(dp0
S'files'
p1
(lp2
S'root://eospublic.cern.ch//eos/experiment/fcc/helhc/generation/DelphesEvents/helhc_v01/mgp8_pp_tt_lo/events_018780925.root'
p3
aS'root://eospublic.cern.ch//eos/experiment/fcc/helhc/generation/DelphesEvents/helhc_v01/mgp8_pp_tt_lo/events_018890712.root'
p4
aS'root://eospublic.cern.ch//eos/experiment/fcc/helhc/generation/DelphesEvents/helhc_v01/mgp8_pp_tt_lo/events_019075335.root'
p5
aS'root://eospublic.cern.ch//eos/experiment/fcc/helhc/generation/DelphesEvents/helhc_v01/mgp8_pp_tt_lo/events_019968450.root'
p6
aS'root://eospublic.cern.ch//eos/experiment/fcc/helhc/generation/DelphesEvents/helhc_v01/mgp8_pp_tt_lo/events_020045239.root'
p7
aS'root://eospublic.cern.ch//eos/experiment/fcc/helhc/generation/DelphesEvents/helhc_v01/mgp8_pp_tt_lo/events_020063822.root'
p8
aS'root://eospublic.cern.ch//eos/experiment/fcc/helhc/generation/DelphesEvents/helhc_v01/mgp8_pp_tt_lo/events_020354393.root'
p9
aS'root://eospublic.cern.ch//eos/experiment/fcc/helhc/generation/DelphesEvents/helhc_v01/mgp8_pp_tt_lo/events_021367562.root'
p10
aS'root://eospublic.cern.ch//eos/experiment/fcc/helhc/generation/DelphesEvents/helhc_v01/mgp8_pp_tt_lo/events_021669401.root'
p11
aS'root://eospublic.cern.ch//eos/experiment/fcc/helhc/generation/DelphesEvents/helhc_v01/mgp8_pp_tt_lo/events_022239024.root'
p12
asS'name'
p13
S'mgp8_pp_tt_lo_Chunk3'
p14
s.