(dp0
S'files'
p1
(lp2
S'/eos/experiment/fcc/helhc/generation/DelphesEvents/helhc_v01/p8_pp_Zprime_10TeV_ttbar/events_036143341.root'
p3
aS'/eos/experiment/fcc/helhc/generation/DelphesEvents/helhc_v01/p8_pp_Zprime_10TeV_ttbar/events_038653943.root'
p4
aS'/eos/experiment/fcc/helhc/generation/DelphesEvents/helhc_v01/p8_pp_Zprime_10TeV_ttbar/events_041147044.root'
p5
aS'/eos/experiment/fcc/helhc/generation/DelphesEvents/helhc_v01/p8_pp_Zprime_10TeV_ttbar/events_051231822.root'
p6
aS'/eos/experiment/fcc/helhc/generation/DelphesEvents/helhc_v01/p8_pp_Zprime_10TeV_ttbar/events_054535356.root'
p7
asS'name'
p8
S'p8_pp_Zprime_10TeV_ttbar_Chunk3'
p9
s.