(dp0
S'files'
p1
(lp2
S'root://eospublic.cern.ch//eos/experiment/fcc/helhc/generation/DelphesEvents/helhc_v01/mgp8_pp_tt_lo/events_023367821.root'
p3
aS'root://eospublic.cern.ch//eos/experiment/fcc/helhc/generation/DelphesEvents/helhc_v01/mgp8_pp_tt_lo/events_026828495.root'
p4
aS'root://eospublic.cern.ch//eos/experiment/fcc/helhc/generation/DelphesEvents/helhc_v01/mgp8_pp_tt_lo/events_031093573.root'
p5
aS'root://eospublic.cern.ch//eos/experiment/fcc/helhc/generation/DelphesEvents/helhc_v01/mgp8_pp_tt_lo/events_031396086.root'
p6
aS'root://eospublic.cern.ch//eos/experiment/fcc/helhc/generation/DelphesEvents/helhc_v01/mgp8_pp_tt_lo/events_031999268.root'
p7
aS'root://eospublic.cern.ch//eos/experiment/fcc/helhc/generation/DelphesEvents/helhc_v01/mgp8_pp_tt_lo/events_032728701.root'
p8
aS'root://eospublic.cern.ch//eos/experiment/fcc/helhc/generation/DelphesEvents/helhc_v01/mgp8_pp_tt_lo/events_039464625.root'
p9
asS'name'
p10
S'mgp8_pp_tt_lo_Chunk9'
p11
s.