(dp0
S'files'
p1
(lp2
S'root://eospublic.cern.ch//eos/experiment/fcc/helhc/generation/DelphesEvents/helhc_v01/mgp8_pp_tt_lo/events_037524203.root'
p3
aS'root://eospublic.cern.ch//eos/experiment/fcc/helhc/generation/DelphesEvents/helhc_v01/mgp8_pp_tt_lo/events_038415283.root'
p4
aS'root://eospublic.cern.ch//eos/experiment/fcc/helhc/generation/DelphesEvents/helhc_v01/mgp8_pp_tt_lo/events_039029978.root'
p5
aS'root://eospublic.cern.ch//eos/experiment/fcc/helhc/generation/DelphesEvents/helhc_v01/mgp8_pp_tt_lo/events_039867458.root'
p6
aS'root://eospublic.cern.ch//eos/experiment/fcc/helhc/generation/DelphesEvents/helhc_v01/mgp8_pp_tt_lo/events_041363808.root'
p7
aS'root://eospublic.cern.ch//eos/experiment/fcc/helhc/generation/DelphesEvents/helhc_v01/mgp8_pp_tt_lo/events_041734055.root'
p8
aS'root://eospublic.cern.ch//eos/experiment/fcc/helhc/generation/DelphesEvents/helhc_v01/mgp8_pp_tt_lo/events_041885398.root'
p9
aS'root://eospublic.cern.ch//eos/experiment/fcc/helhc/generation/DelphesEvents/helhc_v01/mgp8_pp_tt_lo/events_043159057.root'
p10
aS'root://eospublic.cern.ch//eos/experiment/fcc/helhc/generation/DelphesEvents/helhc_v01/mgp8_pp_tt_lo/events_043410846.root'
p11
aS'root://eospublic.cern.ch//eos/experiment/fcc/helhc/generation/DelphesEvents/helhc_v01/mgp8_pp_tt_lo/events_043485187.root'
p12
asS'name'
p13
S'mgp8_pp_tt_lo_Chunk7'
p14
s.