(dp0
S'files'
p1
(lp2
S'/eos/experiment/fcc/helhc/generation/DelphesEvents/helhc_v01/p8_pp_Zprime_10TeV_ttbar/events_029135235.root'
p3
aS'/eos/experiment/fcc/helhc/generation/DelphesEvents/helhc_v01/p8_pp_Zprime_10TeV_ttbar/events_029225941.root'
p4
aS'/eos/experiment/fcc/helhc/generation/DelphesEvents/helhc_v01/p8_pp_Zprime_10TeV_ttbar/events_032431242.root'
p5
aS'/eos/experiment/fcc/helhc/generation/DelphesEvents/helhc_v01/p8_pp_Zprime_10TeV_ttbar/events_033788490.root'
p6
aS'/eos/experiment/fcc/helhc/generation/DelphesEvents/helhc_v01/p8_pp_Zprime_10TeV_ttbar/events_035171627.root'
p7
asS'name'
p8
S'p8_pp_Zprime_10TeV_ttbar_Chunk2'
p9
s.